target datalayout = "e-m:e-p270:32:32-p271:32:32-p272:64:64-i64:64-i128:128-f80:128-n8:16:32:64-S128"
target triple = "x86_64-unknown-linux-gnu"

%"class.v8::IndirectHandleBase" = type { ptr }
%struct.uv__queue = type { ptr, ptr }
%"class.v8::Global.293" = type { %"class.v8::PersistentBase.294" }
%"class.v8::PersistentBase.294" = type { %"class.v8::IndirectHandleBase" }
%"struct.node::async_context" = type { double, double }
%"class.node::ThreadPoolWork" = type { ptr, ptr, %struct.uv_work_s, ptr }
%struct.uv_work_s = type { ptr, i32, [6 x ptr], ptr, ptr, ptr, %struct.uv__work }
%struct.uv__work = type { ptr, ptr, ptr, %struct.uv__queue }
%"class.node::AsyncResource" = type { ptr, ptr, %"class.v8::Global.293", %"struct.node::async_context" }
%"class.(anonymous namespace)::uvimpl::Work" = type { %"class.node::AsyncResource", %"class.node::ThreadPoolWork", ptr, ptr, ptr, ptr }

; Function Attrs: mustprogress nounwind uwtable
define internal void @_ZN12_GLOBAL__N_16uvimpl4Work16DoThreadPoolWorkEv(ptr noundef nonnull align 8 dereferenceable(224) %this) unnamed_addr #4 align 2 {
entry:
  %this.addr = alloca ptr, align 8
  store ptr %this, ptr %this.addr, align 8
  %this1 = load ptr, ptr %this.addr, align 8
  %_execute = getelementptr inbounds %"class.(anonymous namespace)::uvimpl::Work", ptr %this1, i32 0, i32 4
  %0 = load ptr, ptr %_execute, align 8
  %_env = getelementptr inbounds %"class.(anonymous namespace)::uvimpl::Work", ptr %this1, i32 0, i32 2
  %1 = load ptr, ptr %_env, align 8
  %_data = getelementptr inbounds %"class.(anonymous namespace)::uvimpl::Work", ptr %this1, i32 0, i32 3
  %2 = load ptr, ptr %_data, align 8
  call void %0(ptr noundef %1, ptr noundef %2)
  ret void
}