; Function Attrs: mustprogress nounwind uwtable
define internal void @_ZN12_GLOBAL__N_16uvimpl4Work16DoThreadPoolWorkEv(ptr nocapture noundef nonnull readonly align 8 dereferenceable(224) %this) unnamed_addr #3 align 2 {
entry:
  %_execute = getelementptr inbounds i8, ptr %this, i64 208
  %0 = load ptr, ptr %_execute, align 8
  %_env = getelementptr inbounds i8, ptr %this, i64 192
  %1 = load ptr, ptr %_env, align 8
  %_data = getelementptr inbounds i8, ptr %this, i64 200
  %2 = load ptr, ptr %_data, align 8
  tail call void %0(ptr noundef %1, ptr noundef %2) #21
  ret void
}